target datalayout = "e-m:e-p270:32:32-p271:32:32-p272:64:64-i64:64-i128:128-f80:128-n8:16:32:64-S128"
target triple = "x86_64-pc-linux-gnu"

%struct.FLAC__StreamMetadata = type { i32, i32, i32, %union.anon }
%union.anon = type { %struct.FLAC__StreamMetadata_CueSheet }
%struct.FLAC__StreamMetadata_CueSheet = type { [129 x i8], i64, i32, i32, ptr }
%struct.FLAC__StreamMetadata_SeekTable = type { i32, ptr }
%struct.FLAC__StreamMetadata_SeekPoint = type { i64, i64, i32 }

; Function Attrs: nounwind sspstrong uwtable
define i32 @FLAC__metadata_object_seektable_template_append_point(ptr noundef %0, i64 noundef %1) #0 {
  %3 = alloca i32, align 4
  %4 = alloca ptr, align 8
  %5 = alloca i64, align 8
  %6 = alloca ptr, align 8
  %7 = alloca i32, align 4
  store ptr %0, ptr %4, align 8, !tbaa !7
  store i64 %1, ptr %5, align 8, !tbaa !28
  call void @llvm.lifetime.start.p0(i64 8, ptr %6) #12
  %8 = load ptr, ptr %4, align 8, !tbaa !7
  %9 = getelementptr inbounds nuw %struct.FLAC__StreamMetadata, ptr %8, i32 0, i32 3
  store ptr %9, ptr %6, align 8, !tbaa !27
  %10 = load ptr, ptr %4, align 8, !tbaa !7
  %11 = load ptr, ptr %6, align 8, !tbaa !27
  %12 = getelementptr inbounds nuw %struct.FLAC__StreamMetadata_SeekTable, ptr %11, i32 0, i32 0
  %13 = load i32, ptr %12, align 8, !tbaa !46
  %14 = add i32 %13, 1
  %15 = call i32 @FLAC__metadata_object_seektable_resize_points(ptr noundef %10, i32 noundef %14)
  %16 = icmp ne i32 %15, 0
  br i1 %16, label %18, label %17

17:                                               ; preds = %2
  store i32 0, ptr %3, align 4
  store i32 1, ptr %7, align 4
  br label %50

18:                                               ; preds = %2
  %19 = load i64, ptr %5, align 8, !tbaa !28
  %20 = load ptr, ptr %6, align 8, !tbaa !27
  %21 = getelementptr inbounds nuw %struct.FLAC__StreamMetadata_SeekTable, ptr %20, i32 0, i32 1
  %22 = load ptr, ptr %21, align 8, !tbaa !48
  %23 = load ptr, ptr %6, align 8, !tbaa !27
  %24 = getelementptr inbounds nuw %struct.FLAC__StreamMetadata_SeekTable, ptr %23, i32 0, i32 0
  %25 = load i32, ptr %24, align 8, !tbaa !46
  %26 = sub i32 %25, 1
  %27 = zext i32 %26 to i64
  %28 = getelementptr inbounds nuw %struct.FLAC__StreamMetadata_SeekPoint, ptr %22, i64 %27
  %29 = getelementptr inbounds nuw %struct.FLAC__StreamMetadata_SeekPoint, ptr %28, i32 0, i32 0
  store i64 %19, ptr %29, align 8, !tbaa !49
  %30 = load ptr, ptr %6, align 8, !tbaa !27
  %31 = getelementptr inbounds nuw %struct.FLAC__StreamMetadata_SeekTable, ptr %30, i32 0, i32 1
  %32 = load ptr, ptr %31, align 8, !tbaa !48
  %33 = load ptr, ptr %6, align 8, !tbaa !27
  %34 = getelementptr inbounds nuw %struct.FLAC__StreamMetadata_SeekTable, ptr %33, i32 0, i32 0
  %35 = load i32, ptr %34, align 8, !tbaa !46
  %36 = sub i32 %35, 1
  %37 = zext i32 %36 to i64
  %38 = getelementptr inbounds nuw %struct.FLAC__StreamMetadata_SeekPoint, ptr %32, i64 %37
  %39 = getelementptr inbounds nuw %struct.FLAC__StreamMetadata_SeekPoint, ptr %38, i32 0, i32 1
  store i64 0, ptr %39, align 8, !tbaa !51
  %40 = load ptr, ptr %6, align 8, !tbaa !27
  %41 = getelementptr inbounds nuw %struct.FLAC__StreamMetadata_SeekTable, ptr %40, i32 0, i32 1
  %42 = load ptr, ptr %41, align 8, !tbaa !48
  %43 = load ptr, ptr %6, align 8, !tbaa !27
  %44 = getelementptr inbounds nuw %struct.FLAC__StreamMetadata_SeekTable, ptr %43, i32 0, i32 0
  %45 = load i32, ptr %44, align 8, !tbaa !46
  %46 = sub i32 %45, 1
  %47 = zext i32 %46 to i64
  %48 = getelementptr inbounds nuw %struct.FLAC__StreamMetadata_SeekPoint, ptr %42, i64 %47
  %49 = getelementptr inbounds nuw %struct.FLAC__StreamMetadata_SeekPoint, ptr %48, i32 0, i32 2
  store i32 0, ptr %49, align 8, !tbaa !52
  store i32 1, ptr %3, align 4
  store i32 1, ptr %7, align 4
  br label %50

50:                                               ; preds = %18, %17
  call void @llvm.lifetime.end.p0(i64 8, ptr %6) #12
  %51 = load i32, ptr %3, align 4
  ret i32 %51
}