; Function Attrs: nounwind sspstrong uwtable
define range(i32 0, 2) i32 @FLAC__metadata_object_seektable_template_append_point(ptr noundef captures(none) %0, i64 noundef %1) local_unnamed_addr #5 {
  %3 = getelementptr inbounds nuw i8, ptr %0, i64 16
  %4 = load i32, ptr %3, align 8, !tbaa !40
  %5 = add i32 %4, 1
  %6 = tail call i32 @FLAC__metadata_object_seektable_resize_points(ptr noundef %0, i32 noundef %5)
  %.not = icmp eq i32 %6, 0
  br i1 %.not, label %16, label %7

7:                                                ; preds = %2
  %8 = getelementptr inbounds nuw i8, ptr %0, i64 24
  %9 = load ptr, ptr %8, align 8, !tbaa !42
  %10 = load i32, ptr %3, align 8, !tbaa !40
  %11 = add i32 %10, -1
  %12 = zext i32 %11 to i64
  %13 = getelementptr inbounds nuw %struct.FLAC__StreamMetadata_SeekPoint, ptr %9, i64 %12
  store i64 %1, ptr %13, align 8, !tbaa !44
  %14 = getelementptr inbounds nuw %struct.FLAC__StreamMetadata_SeekPoint, ptr %9, i64 %12, i32 1
  store i64 0, ptr %14, align 8, !tbaa !46
  %15 = getelementptr inbounds nuw %struct.FLAC__StreamMetadata_SeekPoint, ptr %9, i64 %12, i32 2
  store i32 0, ptr %15, align 8, !tbaa !47
  br label %16

16:                                               ; preds = %2, %7
  %.0 = phi i32 [ 1, %7 ], [ 0, %2 ]
  ret i32 %.0
}